; ModuleID = '48/1342.c'
source_filename = "48/1342.c"
target datalayout = "e-m:e-p270:32:32-p271:32:32-p272:64:64-i64:64-f80:128-n8:16:32:64-S128"
target triple = "x86_64-pc-linux-gnu"

@.str = private unnamed_addr constant [5 x i8] c"%d%d\00", align 1
@.str.1 = private unnamed_addr constant [3 x i8] c"%d\00", align 1
@.str.2 = private unnamed_addr constant [4 x i8] c" %d\00", align 1
@.str.3 = private unnamed_addr constant [2 x i8] c"\0A\00", align 1

; Function Attrs: noinline nounwind uwtable
define dso_local void @main() #0 {
  %1 = alloca i32, align 4
  %2 = alloca i32, align 4
  %3 = alloca i32, align 4
  %4 = alloca i32, align 4
  %5 = alloca i32, align 4
  %6 = alloca i32, align 4
  %7 = alloca i32, align 4
  %8 = alloca [5 x [9 x [9 x i32]]], align 16
  %9 = bitcast [5 x [9 x [9 x i32]]]* %8 to i8*
  call void @llvm.memset.p0i8.i64(i8* align 16 %9, i8 0, i64 1620, i1 false)
  %10 = call i32 (i8*, ...) @__isoc99_scanf(i8* getelementptr inbounds ([5 x i8], [5 x i8]* @.str, i64 0, i64 0), i32* %4, i32* %5)
  %11 = load i32, i32* %4, align 4
  %12 = getelementptr inbounds [5 x [9 x [9 x i32]]], [5 x [9 x [9 x i32]]]* %8, i64 0, i64 0
  %13 = getelementptr inbounds [9 x [9 x i32]], [9 x [9 x i32]]* %12, i64 0, i64 4
  %14 = getelementptr inbounds [9 x i32], [9 x i32]* %13, i64 0, i64 4
  store i32 %11, i32* %14, align 16
  store i32 1, i32* %1, align 4
  br label %15

15:                                               ; preds = %127, %0
  %16 = load i32, i32* %1, align 4
  %17 = load i32, i32* %5, align 4
  %18 = icmp sle i32 %16, %17
  br i1 %18, label %19, label %130

19:                                               ; preds = %15
  store i32 0, i32* %2, align 4
  br label %20

20:                                               ; preds = %123, %19
  %21 = load i32, i32* %2, align 4
  %22 = icmp slt i32 %21, 9
  br i1 %22, label %23, label %126

23:                                               ; preds = %20
  store i32 0, i32* %3, align 4
  br label %24

24:                                               ; preds = %119, %23
  %25 = load i32, i32* %3, align 4
  %26 = icmp slt i32 %25, 9
  br i1 %26, label %27, label %122

27:                                               ; preds = %24
  %28 = load i32, i32* %1, align 4
  %29 = sub nsw i32 %28, 1
  %30 = sext i32 %29 to i64
  %31 = getelementptr inbounds [5 x [9 x [9 x i32]]], [5 x [9 x [9 x i32]]]* %8, i64 0, i64 %30
  %32 = load i32, i32* %2, align 4
  %33 = sext i32 %32 to i64
  %34 = getelementptr inbounds [9 x [9 x i32]], [9 x [9 x i32]]* %31, i64 0, i64 %33
  %35 = load i32, i32* %3, align 4
  %36 = sext i32 %35 to i64
  %37 = getelementptr inbounds [9 x i32], [9 x i32]* %34, i64 0, i64 %36
  %38 = load i32, i32* %37, align 4
  %39 = icmp ne i32 %38, 0
  br i1 %39, label %40, label %118

40:                                               ; preds = %27
  %41 = load i32, i32* %1, align 4
  %42 = sub nsw i32 %41, 1
  %43 = sext i32 %42 to i64
  %44 = getelementptr inbounds [5 x [9 x [9 x i32]]], [5 x [9 x [9 x i32]]]* %8, i64 0, i64 %43
  %45 = load i32, i32* %2, align 4
  %46 = sext i32 %45 to i64
  %47 = getelementptr inbounds [9 x [9 x i32]], [9 x [9 x i32]]* %44, i64 0, i64 %46
  %48 = load i32, i32* %3, align 4
  %49 = sext i32 %48 to i64
  %50 = getelementptr inbounds [9 x i32], [9 x i32]* %47, i64 0, i64 %49
  %51 = load i32, i32* %50, align 4
  %52 = load i32, i32* %1, align 4
  %53 = sext i32 %52 to i64
  %54 = getelementptr inbounds [5 x [9 x [9 x i32]]], [5 x [9 x [9 x i32]]]* %8, i64 0, i64 %53
  %55 = load i32, i32* %2, align 4
  %56 = sext i32 %55 to i64
  %57 = getelementptr inbounds [9 x [9 x i32]], [9 x [9 x i32]]* %54, i64 0, i64 %56
  %58 = load i32, i32* %3, align 4
  %59 = sext i32 %58 to i64
  %60 = getelementptr inbounds [9 x i32], [9 x i32]* %57, i64 0, i64 %59
  %61 = load i32, i32* %60, align 4
  %62 = add nsw i32 %61, %51
  store i32 %62, i32* %60, align 4
  %63 = load i32, i32* %2, align 4
  %64 = sub nsw i32 %63, 1
  store i32 %64, i32* %6, align 4
  br label %65

65:                                               ; preds = %114, %40
  %66 = load i32, i32* %6, align 4
  %67 = load i32, i32* %2, align 4
  %68 = add nsw i32 %67, 1
  %69 = icmp sle i32 %66, %68
  br i1 %69, label %70, label %117

70:                                               ; preds = %65
  %71 = load i32, i32* %3, align 4
  %72 = sub nsw i32 %71, 1
  store i32 %72, i32* %7, align 4
  br label %73

73:                                               ; preds = %110, %70
  %74 = load i32, i32* %7, align 4
  %75 = load i32, i32* %3, align 4
  %76 = add nsw i32 %75, 1
  %77 = icmp sle i32 %74, %76
  br i1 %77, label %78, label %113

78:                                               ; preds = %73
  %79 = load i32, i32* %1, align 4
  %80 = sext i32 %79 to i64
  %81 = getelementptr inbounds [5 x [9 x [9 x i32]]], [5 x [9 x [9 x i32]]]* %8, i64 0, i64 %80
  %82 = load i32, i32* %6, align 4
  %83 = sext i32 %82 to i64
  %84 = getelementptr inbounds [9 x [9 x i32]], [9 x [9 x i32]]* %81, i64 0, i64 %83
  %85 = load i32, i32* %7, align 4
  %86 = sext i32 %85 to i64
  %87 = getelementptr inbounds [9 x i32], [9 x i32]* %84, i64 0, i64 %86
  %88 = load i32, i32* %87, align 4
  %89 = load i32, i32* %1, align 4
  %90 = sub nsw i32 %89, 1
  %91 = sext i32 %90 to i64
  %92 = getelementptr inbounds [5 x [9 x [9 x i32]]], [5 x [9 x [9 x i32]]]* %8, i64 0, i64 %91
  %93 = load i32, i32* %2, align 4
  %94 = sext i32 %93 to i64
  %95 = getelementptr inbounds [9 x [9 x i32]], [9 x [9 x i32]]* %92, i64 0, i64 %94
  %96 = load i32, i32* %3, align 4
  %97 = sext i32 %96 to i64
  %98 = getelementptr inbounds [9 x i32], [9 x i32]* %95, i64 0, i64 %97
  %99 = load i32, i32* %98, align 4
  %100 = add nsw i32 %88, %99
  %101 = load i32, i32* %1, align 4
  %102 = sext i32 %101 to i64
  %103 = getelementptr inbounds [5 x [9 x [9 x i32]]], [5 x [9 x [9 x i32]]]* %8, i64 0, i64 %102
  %104 = load i32, i32* %6, align 4
  %105 = sext i32 %104 to i64
  %106 = getelementptr inbounds [9 x [9 x i32]], [9 x [9 x i32]]* %103, i64 0, i64 %105
  %107 = load i32, i32* %7, align 4
  %108 = sext i32 %107 to i64
  %109 = getelementptr inbounds [9 x i32], [9 x i32]* %106, i64 0, i64 %108
  store i32 %100, i32* %109, align 4
  br label %110

110:                                              ; preds = %78
  %111 = load i32, i32* %7, align 4
  %112 = add nsw i32 %111, 1
  store i32 %112, i32* %7, align 4
  br label %73

113:                                              ; preds = %73
  br label %114

114:                                              ; preds = %113
  %115 = load i32, i32* %6, align 4
  %116 = add nsw i32 %115, 1
  store i32 %116, i32* %6, align 4
  br label %65

117:                                              ; preds = %65
  br label %118

118:                                              ; preds = %117, %27
  br label %119

119:                                              ; preds = %118
  %120 = load i32, i32* %3, align 4
  %121 = add nsw i32 %120, 1
  store i32 %121, i32* %3, align 4
  br label %24

122:                                              ; preds = %24
  br label %123

123:                                              ; preds = %122
  %124 = load i32, i32* %2, align 4
  %125 = add nsw i32 %124, 1
  store i32 %125, i32* %2, align 4
  br label %20

126:                                              ; preds = %20
  br label %127

127:                                              ; preds = %126
  %128 = load i32, i32* %1, align 4
  %129 = add nsw i32 %128, 1
  store i32 %129, i32* %1, align 4
  br label %15

130:                                              ; preds = %15
  store i32 0, i32* %2, align 4
  br label %131

131:                                              ; preds = %164, %130
  %132 = load i32, i32* %2, align 4
  %133 = icmp slt i32 %132, 9
  br i1 %133, label %134, label %167

134:                                              ; preds = %131
  %135 = load i32, i32* %5, align 4
  %136 = sext i32 %135 to i64
  %137 = getelementptr inbounds [5 x [9 x [9 x i32]]], [5 x [9 x [9 x i32]]]* %8, i64 0, i64 %136
  %138 = load i32, i32* %2, align 4
  %139 = sext i32 %138 to i64
  %140 = getelementptr inbounds [9 x [9 x i32]], [9 x [9 x i32]]* %137, i64 0, i64 %139
  %141 = getelementptr inbounds [9 x i32], [9 x i32]* %140, i64 0, i64 0
  %142 = load i32, i32* %141, align 4
  %143 = call i32 (i8*, ...) @printf(i8* getelementptr inbounds ([3 x i8], [3 x i8]* @.str.1, i64 0, i64 0), i32 %142)
  store i32 1, i32* %3, align 4
  br label %144

144:                                              ; preds = %159, %134
  %145 = load i32, i32* %3, align 4
  %146 = icmp slt i32 %145, 9
  br i1 %146, label %147, label %162

147:                                              ; preds = %144
  %148 = load i32, i32* %5, align 4
  %149 = sext i32 %148 to i64
  %150 = getelementptr inbounds [5 x [9 x [9 x i32]]], [5 x [9 x [9 x i32]]]* %8, i64 0, i64 %149
  %151 = load i32, i32* %2, align 4
  %152 = sext i32 %151 to i64
  %153 = getelementptr inbounds [9 x [9 x i32]], [9 x [9 x i32]]* %150, i64 0, i64 %152
  %154 = load i32, i32* %3, align 4
  %155 = sext i32 %154 to i64
  %156 = getelementptr inbounds [9 x i32], [9 x i32]* %153, i64 0, i64 %155
  %157 = load i32, i32* %156, align 4
  %158 = call i32 (i8*, ...) @printf(i8* getelementptr inbounds ([4 x i8], [4 x i8]* @.str.2, i64 0, i64 0), i32 %157)
  br label %159

159:                                              ; preds = %147
  %160 = load i32, i32* %3, align 4
  %161 = add nsw i32 %160, 1
  store i32 %161, i32* %3, align 4
  br label %144

162:                                              ; preds = %144
  %163 = call i32 (i8*, ...) @printf(i8* getelementptr inbounds ([2 x i8], [2 x i8]* @.str.3, i64 0, i64 0))
  br label %164

164:                                              ; preds = %162
  %165 = load i32, i32* %2, align 4
  %166 = add nsw i32 %165, 1
  store i32 %166, i32* %2, align 4
  br label %131

167:                                              ; preds = %131
  ret void
}

; Function Attrs: argmemonly nounwind willreturn
declare void @llvm.memset.p0i8.i64(i8* nocapture writeonly, i8, i64, i1 immarg) #1

declare dso_local i32 @__isoc99_scanf(i8*, ...) #2

declare dso_local i32 @printf(i8*, ...) #2


!llvm.module.flags = !{!0}
!llvm.ident = !{!1}

!0 = !{i32 1, !"wchar_size", i32 4}
!1 = !{!"clang version 10.0.0-4ubuntu1 "}
